; ModuleID = 'source-C-CXX/36/1022.c'
source_filename = "source-C-CXX/36/1022.c"
target datalayout = "e-m:e-p270:32:32-p271:32:32-p272:64:64-i64:64-f80:128-n8:16:32:64-S128"
target triple = "x86_64-pc-linux-gnu"

@.str = private unnamed_addr constant [3 x i8] c"%d\00", align 1
@.str.1 = private unnamed_addr constant [4 x i8] c"%c\0A\00", align 1
@str = private unnamed_addr constant [3 x i8] c"no\00", align 1

; Function Attrs: nounwind sspstrong uwtable
define dso_local i32 @main() local_unnamed_addr #0 {
  %1 = alloca i32, align 4
  %2 = alloca [100001 x i8], align 16
  %3 = alloca [26 x i32], align 16
  %4 = bitcast i32* %1 to i8*
  call void @llvm.lifetime.start.p0i8(i64 4, i8* nonnull %4) #6
  %5 = getelementptr inbounds [100001 x i8], [100001 x i8]* %2, i64 0, i64 0
  call void @llvm.lifetime.start.p0i8(i64 100001, i8* nonnull %5) #6
  %6 = call i32 (i8*, ...) @__isoc99_scanf(i8* getelementptr inbounds ([3 x i8], [3 x i8]* @.str, i64 0, i64 0), i32* nonnull %1)
  %7 = call i32 (i8*, ...) bitcast (i32 (...)* @gets to i32 (i8*, ...)*)(i8* nonnull %5) #6
  %8 = bitcast [26 x i32]* %3 to i8*
  %9 = load i32, i32* %1, align 4, !tbaa !5
  %10 = icmp sgt i32 %9, 0
  br i1 %10, label %11, label %51

11:                                               ; preds = %0, %47
  %12 = phi i32 [ %48, %47 ], [ 0, %0 ]
  %13 = call i32 (i8*, ...) bitcast (i32 (...)* @gets to i32 (i8*, ...)*)(i8* nonnull %5) #6
  call void @llvm.lifetime.start.p0i8(i64 104, i8* nonnull %8) #6
  call void @llvm.memset.p0i8.i64(i8* noundef nonnull align 16 dereferenceable(104) %8, i8 0, i64 104, i1 false)
  %14 = load i8, i8* %5, align 16, !tbaa !9
  %15 = icmp eq i8 %14, 0
  br i1 %15, label %45, label %17

16:                                               ; preds = %17
  br i1 %15, label %45, label %28

17:                                               ; preds = %11, %17
  %18 = phi i8 [ %26, %17 ], [ %14, %11 ]
  %19 = phi i8* [ %25, %17 ], [ %5, %11 ]
  %20 = sext i8 %18 to i64
  %21 = add nsw i64 %20, -97
  %22 = getelementptr inbounds [26 x i32], [26 x i32]* %3, i64 0, i64 %21
  %23 = load i32, i32* %22, align 4, !tbaa !5
  %24 = add nsw i32 %23, 1
  store i32 %24, i32* %22, align 4, !tbaa !5
  %25 = getelementptr inbounds i8, i8* %19, i64 1
  %26 = load i8, i8* %25, align 1, !tbaa !9
  %27 = icmp eq i8 %26, 0
  br i1 %27, label %16, label %17, !llvm.loop !10

28:                                               ; preds = %16, %36
  %29 = phi i8 [ %38, %36 ], [ %14, %16 ]
  %30 = phi i8* [ %37, %36 ], [ %5, %16 ]
  %31 = sext i8 %29 to i64
  %32 = add nsw i64 %31, -97
  %33 = getelementptr inbounds [26 x i32], [26 x i32]* %3, i64 0, i64 %32
  %34 = load i32, i32* %33, align 4, !tbaa !5
  %35 = icmp eq i32 %34, 1
  br i1 %35, label %40, label %36

36:                                               ; preds = %28
  %37 = getelementptr inbounds i8, i8* %30, i64 1
  %38 = load i8, i8* %37, align 1, !tbaa !9
  %39 = icmp eq i8 %38, 0
  br i1 %39, label %45, label %28, !llvm.loop !12

40:                                               ; preds = %28
  %41 = sext i8 %29 to i32
  %42 = call i32 (i8*, ...) @printf(i8* nonnull dereferenceable(1) getelementptr inbounds ([4 x i8], [4 x i8]* @.str.1, i64 0, i64 0), i32 %41)
  %43 = load i8, i8* %30, align 1, !tbaa !9
  %44 = icmp eq i8 %43, 0
  br i1 %44, label %45, label %47

45:                                               ; preds = %36, %11, %16, %40
  %46 = call i32 @puts(i8* nonnull dereferenceable(1) getelementptr inbounds ([3 x i8], [3 x i8]* @str, i64 0, i64 0))
  br label %47

47:                                               ; preds = %45, %40
  call void @llvm.lifetime.end.p0i8(i64 104, i8* nonnull %8) #6
  %48 = add nuw nsw i32 %12, 1
  %49 = load i32, i32* %1, align 4, !tbaa !5
  %50 = icmp slt i32 %48, %49
  br i1 %50, label %11, label %51, !llvm.loop !13

51:                                               ; preds = %47, %0
  call void @llvm.lifetime.end.p0i8(i64 100001, i8* nonnull %5) #6
  call void @llvm.lifetime.end.p0i8(i64 4, i8* nonnull %4) #6
  ret i32 0
}

; Function Attrs: argmemonly mustprogress nofree nosync nounwind willreturn
declare void @llvm.lifetime.start.p0i8(i64 immarg, i8* nocapture) #1

; Function Attrs: nofree nounwind
declare noundef i32 @__isoc99_scanf(i8* nocapture noundef readonly, ...) local_unnamed_addr #2

declare i32 @gets(...) local_unnamed_addr #3

; Function Attrs: argmemonly mustprogress nofree nounwind willreturn writeonly
declare void @llvm.memset.p0i8.i64(i8* nocapture writeonly, i8, i64, i1 immarg) #4

; Function Attrs: nofree nounwind
declare noundef i32 @printf(i8* nocapture noundef readonly, ...) local_unnamed_addr #2

; Function Attrs: argmemonly mustprogress nofree nosync nounwind willreturn
declare void @llvm.lifetime.end.p0i8(i64 immarg, i8* nocapture) #1

; Function Attrs: nofree nounwind
declare noundef i32 @puts(i8* nocapture noundef readonly) local_unnamed_addr #5


!llvm.module.flags = !{!0, !1, !2, !3}
!llvm.ident = !{!4}

!0 = !{i32 1, !"wchar_size", i32 4}
!1 = !{i32 7, !"PIC Level", i32 2}
!2 = !{i32 7, !"PIE Level", i32 2}
!3 = !{i32 7, !"uwtable", i32 1}
!4 = !{!"clang version 13.0.0"}
!5 = !{!6, !6, i64 0}
!6 = !{!"int", !7, i64 0}
!7 = !{!"omnipotent char", !8, i64 0}
!8 = !{!"Simple C/C++ TBAA"}
!9 = !{!7, !7, i64 0}
!10 = distinct !{!10, !11}
!11 = !{!"llvm.loop.mustprogress"}
!12 = distinct !{!12, !11}
!13 = distinct !{!13, !11}
